target datalayout = "e-m:e-p270:32:32-p271:32:32-p272:64:64-i64:64-i128:128-f80:128-n8:16:32:64-S128"
target triple = "x86_64-pc-linux-gnu"

%struct.uv__allocator_t = type { ptr, ptr, ptr, ptr }

@uv__allocator = internal global %struct.uv__allocator_t { ptr @malloc, ptr @realloc, ptr @calloc, ptr @free }, align 8

; Function Attrs: nounwind uwtable
define dso_local i32 @uv_replace_allocator(ptr noundef %0, ptr noundef %1, ptr noundef %2, ptr noundef %3) #0 {
  %5 = alloca i32, align 4
  %6 = alloca ptr, align 8
  %7 = alloca ptr, align 8
  %8 = alloca ptr, align 8
  %9 = alloca ptr, align 8
  store ptr %0, ptr %6, align 8, !tbaa !14
  store ptr %1, ptr %7, align 8, !tbaa !14
  store ptr %2, ptr %8, align 8, !tbaa !14
  store ptr %3, ptr %9, align 8, !tbaa !14
  %10 = load ptr, ptr %6, align 8, !tbaa !14
  %11 = icmp eq ptr %10, null
  br i1 %11, label %21, label %12

12:                                               ; preds = %4
  %13 = load ptr, ptr %7, align 8, !tbaa !14
  %14 = icmp eq ptr %13, null
  br i1 %14, label %21, label %15

15:                                               ; preds = %12
  %16 = load ptr, ptr %8, align 8, !tbaa !14
  %17 = icmp eq ptr %16, null
  br i1 %17, label %21, label %18

18:                                               ; preds = %15
  %19 = load ptr, ptr %9, align 8, !tbaa !14
  %20 = icmp eq ptr %19, null
  br i1 %20, label %21, label %22

21:                                               ; preds = %18, %15, %12, %4
  store i32 -22, ptr %5, align 4
  br label %27

22:                                               ; preds = %18
  %23 = load ptr, ptr %6, align 8, !tbaa !14
  store ptr %23, ptr @uv__allocator, align 8, !tbaa !11
  %24 = load ptr, ptr %7, align 8, !tbaa !14
  store ptr %24, ptr getelementptr inbounds nuw (%struct.uv__allocator_t, ptr @uv__allocator, i32 0, i32 1), align 8, !tbaa !19
  %25 = load ptr, ptr %8, align 8, !tbaa !14
  store ptr %25, ptr getelementptr inbounds nuw (%struct.uv__allocator_t, ptr @uv__allocator, i32 0, i32 2), align 8, !tbaa !18
  %26 = load ptr, ptr %9, align 8, !tbaa !14
  store ptr %26, ptr getelementptr inbounds nuw (%struct.uv__allocator_t, ptr @uv__allocator, i32 0, i32 3), align 8, !tbaa !17
  store i32 0, ptr %5, align 4
  br label %27

27:                                               ; preds = %22, %21
  %28 = load i32, ptr %5, align 4
  ret i32 %28
}