; Function Attrs: mustprogress nofree norecurse nosync nounwind willreturn memory(write, argmem: none, inaccessiblemem: none) uwtable
define dso_local range(i32 -22, 1) i32 @uv_replace_allocator(ptr noundef %0, ptr noundef %1, ptr noundef %2, ptr noundef %3) local_unnamed_addr #5 {
  %5 = icmp eq ptr %0, null
  %6 = icmp eq ptr %1, null
  %or.cond = or i1 %5, %6
  %7 = icmp eq ptr %2, null
  %or.cond3 = or i1 %or.cond, %7
  %8 = icmp eq ptr %3, null
  %or.cond5 = or i1 %or.cond3, %8
  br i1 %or.cond5, label %10, label %9

9:                                                ; preds = %4
  store ptr %0, ptr @uv__allocator.0, align 8, !tbaa !4
  store ptr %1, ptr @uv__allocator.1, align 8, !tbaa !14
  store ptr %2, ptr @uv__allocator.2, align 8, !tbaa !13
  store ptr %3, ptr @uv__allocator.3, align 8, !tbaa !12
  br label %10

10:                                               ; preds = %4, %9
  %.0 = phi i32 [ 0, %9 ], [ -22, %4 ]
  ret i32 %.0
}